target datalayout = "e-m:e-p270:32:32-p271:32:32-p272:64:64-i64:64-i128:128-f80:128-n8:16:32:64-S128"
target triple = "x86_64-pc-linux-gnu"

%struct.no_gvl_statx_data = type { ptr, i32, ptr, i32, i32 }

; Function Attrs: nounwind sspstrong uwtable
define internal i64 @io_blocking_statx(ptr noundef %0) #0 {
  %2 = alloca ptr, align 8
  %3 = alloca ptr, align 8
  store ptr %0, ptr %2, align 8, !tbaa !83
  call void @llvm.lifetime.start.p0(i64 8, ptr %3) #24
  %4 = load ptr, ptr %2, align 8, !tbaa !83
  store ptr %4, ptr %3, align 8, !tbaa !188
  %5 = load ptr, ptr %3, align 8, !tbaa !188
  %6 = getelementptr inbounds nuw %struct.no_gvl_statx_data, ptr %5, i32 0, i32 1
  %7 = load i32, ptr %6, align 8, !tbaa !184
  %8 = load ptr, ptr %3, align 8, !tbaa !188
  %9 = getelementptr inbounds nuw %struct.no_gvl_statx_data, ptr %8, i32 0, i32 2
  %10 = load ptr, ptr %9, align 8, !tbaa !185
  %11 = load ptr, ptr %3, align 8, !tbaa !188
  %12 = getelementptr inbounds nuw %struct.no_gvl_statx_data, ptr %11, i32 0, i32 3
  %13 = load i32, ptr %12, align 8, !tbaa !186
  %14 = load ptr, ptr %3, align 8, !tbaa !188
  %15 = getelementptr inbounds nuw %struct.no_gvl_statx_data, ptr %14, i32 0, i32 4
  %16 = load i32, ptr %15, align 4, !tbaa !187
  %17 = load ptr, ptr %3, align 8, !tbaa !188
  %18 = getelementptr inbounds nuw %struct.no_gvl_statx_data, ptr %17, i32 0, i32 0
  %19 = load ptr, ptr %18, align 8, !tbaa !182
  %20 = call i32 @statx(i32 noundef %7, ptr noundef %10, i32 noundef %13, i32 noundef %16, ptr noundef %19) #24
  %21 = sext i32 %20 to i64
  call void @llvm.lifetime.end.p0(i64 8, ptr %3) #24
  ret i64 %21
}

; Function Attrs: nounwind sspstrong uwtable
define internal ptr @no_gvl_statx(ptr noundef %0) #0 {
  %2 = alloca ptr, align 8
  store ptr %0, ptr %2, align 8, !tbaa !83
  %3 = load ptr, ptr %2, align 8, !tbaa !83
  %4 = call i64 @io_blocking_statx(ptr noundef %3)
  %5 = inttoptr i64 %4 to ptr
  ret ptr %5
}