; Function Attrs: nounwind sspstrong uwtable
define internal ptr @no_gvl_statx(ptr noundef readonly captures(none) %0) #0 {
  %2 = getelementptr inbounds nuw i8, ptr %0, i64 8
  %3 = load i32, ptr %2, align 8, !tbaa !56
  %4 = getelementptr inbounds nuw i8, ptr %0, i64 16
  %5 = load ptr, ptr %4, align 8, !tbaa !57
  %6 = getelementptr inbounds nuw i8, ptr %0, i64 24
  %7 = load i32, ptr %6, align 8, !tbaa !58
  %8 = getelementptr inbounds nuw i8, ptr %0, i64 28
  %9 = load i32, ptr %8, align 4, !tbaa !59
  %10 = load ptr, ptr %0, align 8, !tbaa !53
  %11 = tail call i32 @statx(i32 noundef %3, ptr noundef %5, i32 noundef %7, i32 noundef %9, ptr noundef %10) #22
  %12 = sext i32 %11 to i64
  %13 = inttoptr i64 %12 to ptr
  ret ptr %13
}